; Function Attrs: nounwind uwtable
define ptr @l_Lake_OutStream_get(ptr noundef %0, ptr noundef %1) local_unnamed_addr #1 {
  %3 = ptrtoint ptr %0 to i64
  %4 = and i64 %3, 1
  %.not.i = icmp eq i64 %4, 0
  br i1 %.not.i, label %8, label %5

5:                                                ; preds = %2
  %6 = lshr i64 %3, 1
  %7 = trunc i64 %6 to i32
  br label %lean_obj_tag.exit

8:                                                ; preds = %2
  %9 = getelementptr i8, ptr %0, i64 4
  %.val.i = load i32, ptr %9, align 4
  %10 = lshr i32 %.val.i, 24
  br label %lean_obj_tag.exit

lean_obj_tag.exit:                                ; preds = %5, %8
  %.0.i = phi i32 [ %7, %5 ], [ %10, %8 ]
  switch i32 %.0.i, label %15 [
    i32 0, label %11
    i32 1, label %13
  ]

11:                                               ; preds = %lean_obj_tag.exit
  %12 = tail call ptr @lean_get_stdout(ptr noundef %1) #9
  br label %32

13:                                               ; preds = %lean_obj_tag.exit
  %14 = tail call ptr @lean_get_stderr(ptr noundef %1) #9
  br label %32

15:                                               ; preds = %lean_obj_tag.exit
  %16 = getelementptr inbounds nuw i8, ptr %0, i64 8
  %17 = load ptr, ptr %16, align 8, !tbaa !10
  %18 = ptrtoint ptr %17 to i64
  %19 = and i64 %18, 1
  %.not = icmp eq i64 %19, 0
  br i1 %.not, label %20, label %lean_inc.exit

20:                                               ; preds = %15
  %.val.i13 = load i32, ptr %17, align 4, !tbaa !4
  %21 = icmp sgt i32 %.val.i13, 0
  br i1 %21, label %22, label %24, !prof !9

22:                                               ; preds = %20
  %23 = add nuw i32 %.val.i13, 1
  store i32 %23, ptr %17, align 4, !tbaa !4
  br label %lean_inc.exit

24:                                               ; preds = %20
  %.not.i14 = icmp eq i32 %.val.i13, 0
  br i1 %.not.i14, label %lean_inc.exit, label %25

25:                                               ; preds = %24
  tail call void @lean_inc_ref_cold(ptr noundef nonnull %17) #9
  br label %lean_inc.exit

lean_inc.exit:                                    ; preds = %25, %24, %22, %15
  tail call void @lean_inc_heartbeat() #9
  %26 = tail call noalias ptr @mi_malloc_small(i64 noundef 24) #9
  %27 = icmp eq ptr %26, null
  br i1 %27, label %28, label %lean_alloc_ctor.exit

28:                                               ; preds = %lean_inc.exit
  tail call void @lean_internal_panic_out_of_memory() #10
  unreachable

lean_alloc_ctor.exit:                             ; preds = %lean_inc.exit
  %29 = getelementptr inbounds nuw i8, ptr %26, i64 4
  store i32 1, ptr %26, align 4, !tbaa !4
  store i32 131096, ptr %29, align 4
  %30 = getelementptr inbounds nuw i8, ptr %26, i64 8
  store ptr %17, ptr %30, align 8, !tbaa !10
  %31 = getelementptr inbounds nuw i8, ptr %26, i64 16
  store ptr %1, ptr %31, align 8, !tbaa !10
  br label %32

32:                                               ; preds = %lean_alloc_ctor.exit, %13, %11
  %.0 = phi ptr [ %26, %lean_alloc_ctor.exit ], [ %14, %13 ], [ %12, %11 ]
  ret ptr %.0
}